target datalayout = "e-m:e-p270:32:32-p271:32:32-p272:64:64-i64:64-i128:128-f80:128-n8:16:32:64-S128"
target triple = "x86_64-pc-linux-gnu"

%"class.std::vector.0" = type { %"struct.std::_Vector_base.1" }
%"struct.std::_Vector_base.1" = type { %"struct.std::_Vector_base<std::vector<int>, std::allocator<std::vector<int>>>::_Vector_impl" }
%"struct.std::_Vector_base<std::vector<int>, std::allocator<std::vector<int>>>::_Vector_impl" = type { %"struct.std::_Vector_base<std::vector<int>, std::allocator<std::vector<int>>>::_Vector_impl_data" }
%"struct.std::_Vector_base<std::vector<int>, std::allocator<std::vector<int>>>::_Vector_impl_data" = type { ptr, ptr, ptr }
%"class.std::vector.6" = type { %"struct.std::_Vector_base.7" }
%"struct.std::_Vector_base.7" = type { %"struct.std::_Vector_base<int, std::allocator<int>>::_Vector_impl" }
%"struct.std::_Vector_base<int, std::allocator<int>>::_Vector_impl" = type { %"struct.std::_Vector_base<int, std::allocator<int>>::_Vector_impl_data" }
%"struct.std::_Vector_base<int, std::allocator<int>>::_Vector_impl_data" = type { ptr, ptr, ptr }
%"class.std::shared_ptr" = type { %"class.std::__shared_ptr" }
%"class.std::__shared_ptr" = type { ptr, %"class.std::__shared_count" }
%"class.std::__shared_count" = type { ptr }
%"class.open_spiel::backgammon::BackgammonState" = type { %"class.open_spiel::State.base", i32, i8, i32, i32, i32, i32, i32, i8, %"class.std::vector.6", %"class.std::vector.6", %"class.std::vector.6", %"class.std::vector.0", %"class.std::vector.29" }
%"class.open_spiel::State.base" = type <{ ptr, %"class.std::shared_ptr", i32, i32, %"class.std::vector.24", i32 }>
%"class.std::vector.24" = type { %"struct.std::_Vector_base.25" }
%"struct.std::_Vector_base.25" = type { %"struct.std::_Vector_base<open_spiel::State::PlayerAction, std::allocator<open_spiel::State::PlayerAction>>::_Vector_impl" }
%"struct.std::_Vector_base<open_spiel::State::PlayerAction, std::allocator<open_spiel::State::PlayerAction>>::_Vector_impl" = type { %"struct.std::_Vector_base<open_spiel::State::PlayerAction, std::allocator<open_spiel::State::PlayerAction>>::_Vector_impl_data" }
%"struct.std::_Vector_base<open_spiel::State::PlayerAction, std::allocator<open_spiel::State::PlayerAction>>::_Vector_impl_data" = type { ptr, ptr, ptr }
%"class.std::vector.29" = type { %"struct.std::_Vector_base.30" }
%"struct.std::_Vector_base.30" = type { %"struct.std::_Vector_base<open_spiel::backgammon::TurnHistoryInfo, std::allocator<open_spiel::backgammon::TurnHistoryInfo>>::_Vector_impl" }
%"struct.std::_Vector_base<open_spiel::backgammon::TurnHistoryInfo, std::allocator<open_spiel::backgammon::TurnHistoryInfo>>::_Vector_impl" = type { %"struct.std::_Vector_base<open_spiel::backgammon::TurnHistoryInfo, std::allocator<open_spiel::backgammon::TurnHistoryInfo>>::_Vector_impl_data" }
%"struct.std::_Vector_base<open_spiel::backgammon::TurnHistoryInfo, std::allocator<open_spiel::backgammon::TurnHistoryInfo>>::_Vector_impl_data" = type { ptr, ptr, ptr }

; Function Attrs: mustprogress nounwind uwtable
define linkonce_odr noundef nonnull align 4 dereferenceable(4) ptr @_ZNKSt6vectorIiSaIiEEixEm(ptr noundef nonnull align 8 dereferenceable(24) %0, i64 noundef %1) #4 comdat align 2 {
  %3 = alloca ptr, align 8
  %4 = alloca i64, align 8
  store ptr %0, ptr %3, align 8
  store i64 %1, ptr %4, align 8
  %5 = load ptr, ptr %3, align 8
  %6 = getelementptr inbounds nuw %"struct.std::_Vector_base.7", ptr %5, i32 0, i32 0
  %7 = getelementptr inbounds nuw %"struct.std::_Vector_base<int, std::allocator<int>>::_Vector_impl_data", ptr %6, i32 0, i32 0
  %8 = load ptr, ptr %7, align 8
  %9 = load i64, ptr %4, align 8
  %10 = getelementptr inbounds i32, ptr %8, i64 %9
  ret ptr %10
}

; Function Attrs: mustprogress nounwind uwtable
define linkonce_odr noundef nonnull align 8 dereferenceable(24) ptr @_ZNKSt6vectorIS_IiSaIiEESaIS1_EEixEm(ptr noundef nonnull align 8 dereferenceable(24) %0, i64 noundef %1) #4 comdat align 2 {
  %3 = alloca ptr, align 8
  %4 = alloca i64, align 8
  store ptr %0, ptr %3, align 8
  store i64 %1, ptr %4, align 8
  %5 = load ptr, ptr %3, align 8
  %6 = getelementptr inbounds nuw %"struct.std::_Vector_base.1", ptr %5, i32 0, i32 0
  %7 = getelementptr inbounds nuw %"struct.std::_Vector_base<std::vector<int>, std::allocator<std::vector<int>>>::_Vector_impl_data", ptr %6, i32 0, i32 0
  %8 = load ptr, ptr %7, align 8
  %9 = load i64, ptr %4, align 8
  %10 = getelementptr inbounds %"class.std::vector.6", ptr %8, i64 %9
  ret ptr %10
}

; Function Attrs: mustprogress nounwind uwtable
define noundef i32 @_ZNK10open_spiel10backgammon15BackgammonState21FurthestCheckerInHomeEi(ptr noundef nonnull align 8 dereferenceable(216) %0, i32 noundef %1) #4 align 2 {
  %3 = alloca i32, align 4
  %4 = alloca ptr, align 8
  %5 = alloca i32, align 4
  %6 = alloca i32, align 4
  %7 = alloca i32, align 4
  %8 = alloca i32, align 4
  %9 = alloca i32, align 4
  %10 = alloca i32, align 4
  store ptr %0, ptr %4, align 8
  store i32 %1, ptr %5, align 4
  %11 = load ptr, ptr %4, align 8
  %12 = load i32, ptr %5, align 4
  %13 = icmp eq i32 %12, 0
  %14 = select i1 %13, i32 23, i32 0
  store i32 %14, ptr %6, align 4
  %15 = load i32, ptr %5, align 4
  %16 = icmp eq i32 %15, 0
  %17 = select i1 %16, i32 17, i32 6
  store i32 %17, ptr %7, align 4
  %18 = load i32, ptr %5, align 4
  %19 = icmp eq i32 %18, 0
  %20 = select i1 %19, i32 -1, i32 1
  store i32 %20, ptr %8, align 4
  %21 = load i32, ptr %5, align 4
  %22 = icmp eq i32 %21, 0
  %23 = select i1 %22, i32 24, i32 -1
  store i32 %23, ptr %9, align 4
  %24 = load i32, ptr %6, align 4
  store i32 %24, ptr %10, align 4
  br label %25

25:                                               ; preds = %42, %2
  %26 = load i32, ptr %10, align 4
  %27 = load i32, ptr %7, align 4
  %28 = icmp ne i32 %26, %27
  br i1 %28, label %29, label %46

29:                                               ; preds = %25
  %30 = getelementptr inbounds nuw %"class.open_spiel::backgammon::BackgammonState", ptr %11, i32 0, i32 12
  %31 = load i32, ptr %5, align 4
  %32 = sext i32 %31 to i64
  %33 = call noundef nonnull align 8 dereferenceable(24) ptr @_ZNKSt6vectorIS_IiSaIiEESaIS1_EEixEm(ptr noundef nonnull align 8 dereferenceable(24) %30, i64 noundef %32) #3
  %34 = load i32, ptr %10, align 4
  %35 = sext i32 %34 to i64
  %36 = call noundef nonnull align 4 dereferenceable(4) ptr @_ZNKSt6vectorIiSaIiEEixEm(ptr noundef nonnull align 8 dereferenceable(24) %33, i64 noundef %35) #3
  %37 = load i32, ptr %36, align 4
  %38 = icmp sgt i32 %37, 0
  br i1 %38, label %39, label %41

39:                                               ; preds = %29
  %40 = load i32, ptr %10, align 4
  store i32 %40, ptr %9, align 4
  br label %41

41:                                               ; preds = %39, %29
  br label %42

42:                                               ; preds = %41
  %43 = load i32, ptr %8, align 4
  %44 = load i32, ptr %10, align 4
  %45 = add nsw i32 %44, %43
  store i32 %45, ptr %10, align 4
  br label %25, !llvm.loop !12

46:                                               ; preds = %25
  %47 = load i32, ptr %9, align 4
  %48 = icmp eq i32 %47, 24
  br i1 %48, label %52, label %49

49:                                               ; preds = %46
  %50 = load i32, ptr %9, align 4
  %51 = icmp eq i32 %50, -1
  br i1 %51, label %52, label %53

52:                                               ; preds = %49, %46
  store i32 -1, ptr %3, align 4
  br label %55

53:                                               ; preds = %49
  %54 = load i32, ptr %9, align 4
  store i32 %54, ptr %3, align 4
  br label %55

55:                                               ; preds = %53, %52
  %56 = load i32, ptr %3, align 4
  ret i32 %56
}