; Function Attrs: mustprogress nofree norecurse nosync nounwind willreturn memory(read, inaccessiblemem: none) uwtable
define noundef i32 @_ZNK10open_spiel10backgammon15BackgammonState21FurthestCheckerInHomeEi(ptr nocapture noundef nonnull readonly align 8 dereferenceable(216) %0, i32 noundef %1) local_unnamed_addr #9 align 2 {
  %3 = icmp eq i32 %1, 0
  %4 = select i1 %3, i64 23, i64 0
  %5 = select i1 %3, i32 17, i32 6
  %6 = select i1 %3, i64 -1, i64 1
  %7 = select i1 %3, i32 24, i32 -1
  %8 = getelementptr inbounds nuw i8, ptr %0, i64 168
  %9 = sext i32 %1 to i64
  %10 = load ptr, ptr %8, align 8
  %11 = getelementptr inbounds %"class.std::vector.6", ptr %10, i64 %9
  %12 = load ptr, ptr %11, align 8
  br label %13

13:                                               ; preds = %2, %13
  %indvars.iv = phi i64 [ %4, %2 ], [ %indvars.iv.next, %13 ]
  %.01719 = phi i32 [ %7, %2 ], [ %spec.select, %13 ]
  %14 = getelementptr inbounds i32, ptr %12, i64 %indvars.iv
  %15 = load i32, ptr %14, align 4
  %16 = icmp sgt i32 %15, 0
  %17 = trunc nsw i64 %indvars.iv to i32
  %spec.select = select i1 %16, i32 %17, i32 %.01719
  %indvars.iv.next = add nsw i64 %indvars.iv, %6
  %18 = trunc nsw i64 %indvars.iv.next to i32
  %.not = icmp eq i32 %5, %18
  br i1 %.not, label %19, label %13, !llvm.loop !32

19:                                               ; preds = %13
  switch i32 %spec.select, label %20 [
    i32 -1, label %21
    i32 24, label %21
  ]

20:                                               ; preds = %19
  br label %21

21:                                               ; preds = %19, %19, %20
  %.018 = phi i32 [ %spec.select, %20 ], [ -1, %19 ], [ -1, %19 ]
  ret i32 %.018
}